target datalayout = "e-m:e-p270:32:32-p271:32:32-p272:64:64-i64:64-i128:128-f80:128-n8:16:32:64-S128"
target triple = "x86_64-pc-linux-gnu"

%struct.tinfl_decompressor_tag = type { i32, i32, i32, i32, i32, i32, i32, i32, i32, i32, i32, [3 x i32], i64, i64, [3 x [1024 x i16]], [576 x i16], [64 x i16], [38 x i16], [288 x i8], [32 x i8], [19 x i8], [4 x i8], [457 x i8] }

; Function Attrs: nounwind uwtable
define ptr @tinfl_decompress_mem_to_heap(ptr noundef %0, i64 noundef %1, ptr noundef %2, i32 noundef %3) #0 {
  %5 = alloca ptr, align 8
  %6 = alloca ptr, align 8
  %7 = alloca i64, align 8
  %8 = alloca ptr, align 8
  %9 = alloca i32, align 4
  %10 = alloca %struct.tinfl_decompressor_tag, align 8
  %11 = alloca ptr, align 8
  %12 = alloca ptr, align 8
  %13 = alloca i64, align 8
  %14 = alloca i64, align 8
  %15 = alloca i64, align 8
  %16 = alloca i64, align 8
  %17 = alloca i64, align 8
  %18 = alloca i32, align 4
  %19 = alloca i32, align 4
  store ptr %0, ptr %6, align 8
  store i64 %1, ptr %7, align 8
  store ptr %2, ptr %8, align 8
  store i32 %3, ptr %9, align 4
  call void @llvm.lifetime.start.p0(i64 8376, ptr %10) #13
  call void @llvm.lifetime.start.p0(i64 8, ptr %11) #13
  store ptr null, ptr %11, align 8
  call void @llvm.lifetime.start.p0(i64 8, ptr %12) #13
  call void @llvm.lifetime.start.p0(i64 8, ptr %13) #13
  store i64 0, ptr %13, align 8
  call void @llvm.lifetime.start.p0(i64 8, ptr %14) #13
  store i64 0, ptr %14, align 8
  %20 = load ptr, ptr %8, align 8
  store i64 0, ptr %20, align 8
  br label %21

21:                                               ; preds = %4
  %22 = getelementptr inbounds nuw %struct.tinfl_decompressor_tag, ptr %10, i32 0, i32 0
  store i32 0, ptr %22, align 8
  br label %23

23:                                               ; preds = %21
  br label %24

24:                                               ; preds = %23
  br label %25

25:                                               ; preds = %90, %24
  call void @llvm.lifetime.start.p0(i64 8, ptr %15) #13
  %26 = load i64, ptr %7, align 8
  %27 = load i64, ptr %13, align 8
  %28 = sub i64 %26, %27
  store i64 %28, ptr %15, align 8
  call void @llvm.lifetime.start.p0(i64 8, ptr %16) #13
  %29 = load i64, ptr %14, align 8
  %30 = load ptr, ptr %8, align 8
  %31 = load i64, ptr %30, align 8
  %32 = sub i64 %29, %31
  store i64 %32, ptr %16, align 8
  call void @llvm.lifetime.start.p0(i64 8, ptr %17) #13
  call void @llvm.lifetime.start.p0(i64 4, ptr %18) #13
  %33 = load ptr, ptr %6, align 8
  %34 = load i64, ptr %13, align 8
  %35 = getelementptr inbounds nuw i8, ptr %33, i64 %34
  %36 = load ptr, ptr %11, align 8
  %37 = load ptr, ptr %11, align 8
  %38 = icmp ne ptr %37, null
  br i1 %38, label %39, label %44

39:                                               ; preds = %25
  %40 = load ptr, ptr %11, align 8
  %41 = load ptr, ptr %8, align 8
  %42 = load i64, ptr %41, align 8
  %43 = getelementptr inbounds nuw i8, ptr %40, i64 %42
  br label %45

44:                                               ; preds = %25
  br label %45

45:                                               ; preds = %44, %39
  %46 = phi ptr [ %43, %39 ], [ null, %44 ]
  %47 = load i32, ptr %9, align 4
  %48 = and i32 %47, -3
  %49 = or i32 %48, 4
  %50 = call i32 @tinfl_decompress(ptr noundef %10, ptr noundef %35, ptr noundef %15, ptr noundef %36, ptr noundef %46, ptr noundef %16, i32 noundef %49)
  store i32 %50, ptr %18, align 4
  %51 = load i32, ptr %18, align 4
  %52 = icmp slt i32 %51, 0
  br i1 %52, label %56, label %53

53:                                               ; preds = %45
  %54 = load i32, ptr %18, align 4
  %55 = icmp eq i32 %54, 1
  br i1 %55, label %56, label %59

56:                                               ; preds = %53, %45
  %57 = load ptr, ptr %11, align 8
  call void @free(ptr noundef %57) #13
  %58 = load ptr, ptr %8, align 8
  store i64 0, ptr %58, align 8
  store ptr null, ptr %5, align 8
  store i32 1, ptr %19, align 4
  br label %88

59:                                               ; preds = %53
  %60 = load i64, ptr %15, align 8
  %61 = load i64, ptr %13, align 8
  %62 = add i64 %61, %60
  store i64 %62, ptr %13, align 8
  %63 = load i64, ptr %16, align 8
  %64 = load ptr, ptr %8, align 8
  %65 = load i64, ptr %64, align 8
  %66 = add i64 %65, %63
  store i64 %66, ptr %64, align 8
  %67 = load i32, ptr %18, align 4
  %68 = icmp eq i32 %67, 0
  br i1 %68, label %69, label %70

69:                                               ; preds = %59
  store i32 4, ptr %19, align 4
  br label %88

70:                                               ; preds = %59
  %71 = load i64, ptr %14, align 8
  %72 = mul i64 %71, 2
  store i64 %72, ptr %17, align 8
  %73 = load i64, ptr %17, align 8
  %74 = icmp ult i64 %73, 128
  br i1 %74, label %75, label %76

75:                                               ; preds = %70
  store i64 128, ptr %17, align 8
  br label %76

76:                                               ; preds = %75, %70
  %77 = load ptr, ptr %11, align 8
  %78 = load i64, ptr %17, align 8
  %79 = call ptr @realloc(ptr noundef %77, i64 noundef %78) #15
  store ptr %79, ptr %12, align 8
  %80 = load ptr, ptr %12, align 8
  %81 = icmp ne ptr %80, null
  br i1 %81, label %85, label %82

82:                                               ; preds = %76
  %83 = load ptr, ptr %11, align 8
  call void @free(ptr noundef %83) #13
  %84 = load ptr, ptr %8, align 8
  store i64 0, ptr %84, align 8
  store ptr null, ptr %5, align 8
  store i32 1, ptr %19, align 4
  br label %88

85:                                               ; preds = %76
  %86 = load ptr, ptr %12, align 8
  store ptr %86, ptr %11, align 8
  %87 = load i64, ptr %17, align 8
  store i64 %87, ptr %14, align 8
  store i32 0, ptr %19, align 4
  br label %88

88:                                               ; preds = %85, %82, %69, %56
  call void @llvm.lifetime.end.p0(i64 4, ptr %18) #13
  call void @llvm.lifetime.end.p0(i64 8, ptr %17) #13
  call void @llvm.lifetime.end.p0(i64 8, ptr %16) #13
  call void @llvm.lifetime.end.p0(i64 8, ptr %15) #13
  %89 = load i32, ptr %19, align 4
  switch i32 %89, label %93 [
    i32 0, label %90
    i32 4, label %91
  ]

90:                                               ; preds = %88
  br label %25

91:                                               ; preds = %88
  %92 = load ptr, ptr %11, align 8
  store ptr %92, ptr %5, align 8
  store i32 1, ptr %19, align 4
  br label %93

93:                                               ; preds = %91, %88
  call void @llvm.lifetime.end.p0(i64 8, ptr %14) #13
  call void @llvm.lifetime.end.p0(i64 8, ptr %13) #13
  call void @llvm.lifetime.end.p0(i64 8, ptr %12) #13
  call void @llvm.lifetime.end.p0(i64 8, ptr %11) #13
  call void @llvm.lifetime.end.p0(i64 8376, ptr %10) #13
  %94 = load ptr, ptr %5, align 8
  ret ptr %94
}