; Function Attrs: nounwind uwtable
define noundef ptr @tinfl_decompress_mem_to_heap(ptr noundef %0, i64 noundef %1, ptr noundef captures(none) initializes((0, 8)) %2, i32 noundef %3) local_unnamed_addr #8 {
  %5 = alloca %struct.tinfl_decompressor_tag, align 8
  %6 = alloca i64, align 8
  %7 = alloca i64, align 8
  call void @llvm.lifetime.start.p0(i64 8376, ptr nonnull %5) #34
  store i64 0, ptr %2, align 8
  store i32 0, ptr %5, align 8
  %8 = and i32 %3, -7
  %9 = or disjoint i32 %8, 4
  br label %10

10:                                               ; preds = %31, %4
  %11 = phi i64 [ 0, %4 ], [ %26, %31 ]
  %.036 = phi ptr [ null, %4 ], [ %30, %31 ]
  %.034 = phi i64 [ 0, %4 ], [ %23, %31 ]
  %.032 = phi i64 [ 0, %4 ], [ %spec.store.select, %31 ]
  call void @llvm.lifetime.start.p0(i64 8, ptr nonnull %6) #34
  %12 = sub i64 %1, %.034
  store i64 %12, ptr %6, align 8
  call void @llvm.lifetime.start.p0(i64 8, ptr nonnull %7) #34
  %13 = sub i64 %.032, %11
  store i64 %13, ptr %7, align 8
  %14 = getelementptr inbounds nuw i8, ptr %0, i64 %.034
  %.not = icmp eq ptr %.036, null
  br i1 %.not, label %.split38, label %.split

.split38:                                         ; preds = %10
  %15 = call i32 @tinfl_decompress(ptr noundef nonnull %5, ptr noundef %14, ptr noundef nonnull %6, ptr noundef null, ptr noundef null, ptr noundef nonnull %7, i32 noundef %9)
  br label %18

.split:                                           ; preds = %10
  %16 = getelementptr inbounds nuw i8, ptr %.036, i64 %11
  %17 = call i32 @tinfl_decompress(ptr noundef nonnull %5, ptr noundef %14, ptr noundef nonnull %6, ptr noundef nonnull %.036, ptr noundef nonnull %16, ptr noundef nonnull %7, i32 noundef %9)
  br label %18

18:                                               ; preds = %.split38, %.split
  %phi.call = phi i32 [ %17, %.split ], [ %15, %.split38 ]
  %19 = icmp slt i32 %phi.call, 0
  %20 = icmp eq i32 %phi.call, 1
  %or.cond = or i1 %19, %20
  br i1 %or.cond, label %.thread, label %21

21:                                               ; preds = %18
  %22 = load i64, ptr %6, align 8
  %23 = add i64 %22, %.034
  %24 = load i64, ptr %7, align 8
  %25 = load i64, ptr %2, align 8
  %26 = add i64 %25, %24
  store i64 %26, ptr %2, align 8
  %27 = icmp eq i32 %phi.call, 0
  br i1 %27, label %.loopexit, label %28

28:                                               ; preds = %21
  %29 = shl i64 %.032, 1
  %spec.store.select = call i64 @llvm.umax.i64(i64 %29, i64 128)
  %30 = call ptr @realloc(ptr noundef %.036, i64 noundef %spec.store.select) #36
  %.not40 = icmp eq ptr %30, null
  br i1 %.not40, label %.thread, label %31

.thread:                                          ; preds = %28, %18
  call void @free(ptr noundef %.036) #34
  store i64 0, ptr %2, align 8
  br label %.loopexit

31:                                               ; preds = %28
  call void @llvm.lifetime.end.p0(i64 8, ptr nonnull %7) #34
  call void @llvm.lifetime.end.p0(i64 8, ptr nonnull %6) #34
  br label %10

.loopexit:                                        ; preds = %21, %.thread
  %.2 = phi ptr [ null, %.thread ], [ %.036, %21 ]
  call void @llvm.lifetime.end.p0(i64 8, ptr nonnull %7) #34
  call void @llvm.lifetime.end.p0(i64 8, ptr nonnull %6) #34
  call void @llvm.lifetime.end.p0(i64 8376, ptr nonnull %5) #34
  ret ptr %.2
}